target datalayout = "e-m:e-p270:32:32-p271:32:32-p272:64:64-i64:64-i128:128-f80:128-n8:16:32:64-S128"
target triple = "x86_64-pc-linux-gnu"

%struct.H5L_trav_le_t = type { ptr, ptr }

; Function Attrs: nounwind uwtable
define internal i32 @H5L__exists_final_cb(ptr noundef %0, ptr noundef %1, ptr noundef %2, ptr noundef %3, ptr noundef %4, ptr noundef %5) #0 {
  %7 = alloca ptr, align 8
  %8 = alloca ptr, align 8
  %9 = alloca ptr, align 8
  %10 = alloca ptr, align 8
  %11 = alloca ptr, align 8
  %12 = alloca ptr, align 8
  %13 = alloca ptr, align 8
  store ptr %0, ptr %7, align 8
  store ptr %1, ptr %8, align 8
  store ptr %2, ptr %9, align 8
  store ptr %3, ptr %10, align 8
  store ptr %4, ptr %11, align 8
  store ptr %5, ptr %12, align 8
  %14 = load ptr, ptr %11, align 8
  store ptr %14, ptr %13, align 8
  %15 = load ptr, ptr %9, align 8
  %16 = icmp ne ptr %15, null
  %17 = load ptr, ptr %13, align 8
  %18 = getelementptr inbounds %struct.H5L_trav_le_t, ptr %17, i32 0, i32 1
  %19 = load ptr, ptr %18, align 8
  %20 = zext i1 %16 to i8
  store i8 %20, ptr %19, align 1
  %21 = load ptr, ptr %12, align 8
  store i32 0, ptr %21, align 4
  ret i32 0
}