; Function Attrs: mustprogress nofree norecurse nosync nounwind willreturn memory(write, argmem: readwrite, inaccessiblemem: none) uwtable
define internal noundef i32 @H5L__exists_final_cb(ptr nocapture readnone %0, ptr nocapture readnone %1, ptr noundef readnone %2, ptr nocapture readnone %3, ptr nocapture noundef readonly %4, ptr nocapture noundef writeonly %5) #6 {
  %7 = icmp ne ptr %2, null
  %8 = getelementptr inbounds i8, ptr %4, i64 8
  %9 = load ptr, ptr %8, align 8
  %10 = zext i1 %7 to i8
  store i8 %10, ptr %9, align 1
  store i32 0, ptr %5, align 4
  ret i32 0
}